; Function Attrs: cold mustprogress nofree norecurse nosync nounwind optsize willreturn memory(argmem: write) uwtable
define void @ff_vp8dsp_init(ptr noundef writeonly captures(none) initializes((0, 128)) %0) local_unnamed_addr #0 {
  store ptr @vp8_luma_dc_wht_c, ptr %0, align 8, !tbaa !109
  %2 = getelementptr inbounds nuw i8, ptr %0, i64 8
  store ptr @vp8_luma_dc_wht_dc_c, ptr %2, align 8, !tbaa !111
  %3 = getelementptr inbounds nuw i8, ptr %0, i64 16
  store ptr @vp8_idct_add_c, ptr %3, align 8, !tbaa !112
  %4 = getelementptr inbounds nuw i8, ptr %0, i64 24
  store ptr @vp8_idct_dc_add_c, ptr %4, align 8, !tbaa !113
  %5 = getelementptr inbounds nuw i8, ptr %0, i64 32
  store ptr @vp8_idct_dc_add4y_c, ptr %5, align 8, !tbaa !114
  %6 = getelementptr inbounds nuw i8, ptr %0, i64 40
  store ptr @vp8_idct_dc_add4uv_c, ptr %6, align 8, !tbaa !115
  %7 = getelementptr inbounds nuw i8, ptr %0, i64 48
  store ptr @vp8_v_loop_filter16_c, ptr %7, align 8, !tbaa !116
  %8 = getelementptr inbounds nuw i8, ptr %0, i64 56
  store ptr @vp8_h_loop_filter16_c, ptr %8, align 8, !tbaa !117
  %9 = getelementptr inbounds nuw i8, ptr %0, i64 64
  store ptr @vp8_v_loop_filter8uv_c, ptr %9, align 8, !tbaa !118
  %10 = getelementptr inbounds nuw i8, ptr %0, i64 72
  store ptr @vp8_h_loop_filter8uv_c, ptr %10, align 8, !tbaa !119
  %11 = getelementptr inbounds nuw i8, ptr %0, i64 80
  store ptr @vp8_v_loop_filter16_inner_c, ptr %11, align 8, !tbaa !120
  %12 = getelementptr inbounds nuw i8, ptr %0, i64 88
  store ptr @vp8_h_loop_filter16_inner_c, ptr %12, align 8, !tbaa !121
  %13 = getelementptr inbounds nuw i8, ptr %0, i64 96
  store ptr @vp8_v_loop_filter8uv_inner_c, ptr %13, align 8, !tbaa !122
  %14 = getelementptr inbounds nuw i8, ptr %0, i64 104
  store ptr @vp8_h_loop_filter8uv_inner_c, ptr %14, align 8, !tbaa !123
  %15 = getelementptr inbounds nuw i8, ptr %0, i64 112
  store ptr @vp8_v_loop_filter_simple_c, ptr %15, align 8, !tbaa !124
  %16 = getelementptr inbounds nuw i8, ptr %0, i64 120
  store ptr @vp8_h_loop_filter_simple_c, ptr %16, align 8, !tbaa !125
  ret void
}